target datalayout = "e-m:e-p270:32:32-p271:32:32-p272:64:64-i64:64-i128:128-f80:128-n8:16:32:64-S128"
target triple = "x86_64-pc-linux-gnu"

%struct.PageHeaderData = type { %struct.PageXLogRecPtr, i16, i16, i16, i16, i16, i16, i32, [0 x %struct.ItemIdData] }
%struct.PageXLogRecPtr = type { i32, i32 }
%struct.ItemIdData = type { i32 }
%struct.SpGistPageOpaqueData = type { i16, i16, i16, i16 }

; Function Attrs: inlinehint nounwind uwtable
define internal void @PageValidateSpecialPointer(ptr noundef %0) #2 {
  %2 = alloca ptr, align 8
  store ptr %0, ptr %2, align 8
  ret void
}

; Function Attrs: nounwind uwtable
define dso_local void @SpGistInitPage(ptr noundef %0, i16 noundef zeroext %1) #0 {
  %3 = alloca ptr, align 8
  %4 = alloca i16, align 2
  %5 = alloca ptr, align 8
  store ptr %0, ptr %3, align 8
  store i16 %1, ptr %4, align 2
  call void @llvm.lifetime.start.p0(i64 8, ptr %5) #7
  %6 = load ptr, ptr %3, align 8
  call void @PageInit(ptr noundef %6, i64 noundef 8192, i64 noundef 8)
  %7 = load ptr, ptr %3, align 8
  call void @PageValidateSpecialPointer(ptr noundef %7)
  %8 = load ptr, ptr %3, align 8
  %9 = load ptr, ptr %3, align 8
  %10 = getelementptr inbounds nuw %struct.PageHeaderData, ptr %9, i32 0, i32 5
  %11 = load i16, ptr %10, align 4
  %12 = zext i16 %11 to i32
  %13 = sext i32 %12 to i64
  %14 = getelementptr inbounds i8, ptr %8, i64 %13
  store ptr %14, ptr %5, align 8
  %15 = load i16, ptr %4, align 2
  %16 = load ptr, ptr %5, align 8
  %17 = getelementptr inbounds nuw %struct.SpGistPageOpaqueData, ptr %16, i32 0, i32 0
  store i16 %15, ptr %17, align 2
  %18 = load ptr, ptr %5, align 8
  %19 = getelementptr inbounds nuw %struct.SpGistPageOpaqueData, ptr %18, i32 0, i32 3
  store i16 -126, ptr %19, align 2
  call void @llvm.lifetime.end.p0(i64 8, ptr %5) #7
  ret void
}